; Function Attrs: mustprogress nounwind uwtable
define hidden void @_ZNK5clang7targets13X86TargetInfo33getCPUSpecificCPUDispatchFeaturesEN4llvm9StringRefERNS2_15SmallVectorImplIS3_EE(ptr nocapture nonnull readnone align 8 %0, ptr %1, i64 %2, ptr noundef nonnull align 8 dereferenceable(16) %3) unnamed_addr #2 align 2 {
  %5 = alloca %"class.llvm::SmallVector.83", align 8
  %6 = getelementptr inbounds i8, ptr %5, i64 16
  call void @_ZN4llvm15SmallVectorBaseIjEC2EPvm(ptr noundef nonnull align 8 dereferenceable(16) %5, ptr noundef nonnull %6, i64 noundef 32) #21
  call void @_ZN4llvm3X8617getFeaturesForCPUENS_9StringRefERNS_15SmallVectorImplIS1_EEb(ptr %1, i64 %2, ptr noundef nonnull align 8 dereferenceable(16) %5, i1 noundef zeroext true) #21
  %7 = load ptr, ptr %5, align 8
  %8 = call noundef i64 @_ZNK4llvm15SmallVectorBaseIjE4sizeEv(ptr noundef nonnull align 8 dereferenceable(16) %5) #21
  %9 = getelementptr inbounds %"class.llvm::StringRef", ptr %7, i64 %8
  %.not12 = icmp eq i64 %8, 0
  br i1 %.not12, label %._crit_edge, label %.lr.ph

.lr.ph:                                           ; preds = %4
  %10 = getelementptr inbounds i8, ptr %3, i64 16
  br label %11

11:                                               ; preds = %.lr.ph, %_ZN4llvm23SmallVectorTemplateBaseINS_9StringRefELb1EE9push_backES1_.exit
  %.013 = phi ptr [ %7, %.lr.ph ], [ %21, %_ZN4llvm23SmallVectorTemplateBaseINS_9StringRefELb1EE9push_backES1_.exit ]
  %.sroa.0.0.copyload = load ptr, ptr %.013, align 8
  %.sroa.2.0..sroa_idx = getelementptr inbounds i8, ptr %.013, i64 8
  %.sroa.2.0.copyload = load i64, ptr %.sroa.2.0..sroa_idx, align 8
  %12 = call noundef i64 @_ZNK4llvm15SmallVectorBaseIjE4sizeEv(ptr noundef nonnull align 8 dereferenceable(16) %3) #21
  %13 = add i64 %12, 1
  %14 = call noundef i64 @_ZNK4llvm15SmallVectorBaseIjE8capacityEv(ptr noundef nonnull align 8 dereferenceable(16) %3) #21
  %.not.i.i.i = icmp ugt i64 %13, %14
  br i1 %.not.i.i.i, label %15, label %_ZN4llvm23SmallVectorTemplateBaseINS_9StringRefELb1EE9push_backES1_.exit

15:                                               ; preds = %11
  call void @_ZN4llvm15SmallVectorBaseIjE8grow_podEPvmm(ptr noundef nonnull align 8 dereferenceable(16) %3, ptr noundef nonnull %10, i64 noundef %13, i64 noundef 16) #21
  br label %_ZN4llvm23SmallVectorTemplateBaseINS_9StringRefELb1EE9push_backES1_.exit

_ZN4llvm23SmallVectorTemplateBaseINS_9StringRefELb1EE9push_backES1_.exit: ; preds = %11, %15
  %16 = load ptr, ptr %3, align 8
  %17 = call noundef i64 @_ZNK4llvm15SmallVectorBaseIjE4sizeEv(ptr noundef nonnull align 8 dereferenceable(16) %3) #21
  %18 = getelementptr inbounds %"class.llvm::StringRef", ptr %16, i64 %17
  store ptr %.sroa.0.0.copyload, ptr %18, align 1
  %.sroa.2.0..sroa_idx.i = getelementptr inbounds i8, ptr %18, i64 8
  store i64 %.sroa.2.0.copyload, ptr %.sroa.2.0..sroa_idx.i, align 1
  %19 = call noundef i64 @_ZNK4llvm15SmallVectorBaseIjE4sizeEv(ptr noundef nonnull align 8 dereferenceable(16) %3) #21
  %20 = add i64 %19, 1
  call void @_ZN4llvm15SmallVectorBaseIjE8set_sizeEm(ptr noundef nonnull align 8 dereferenceable(16) %3, i64 noundef %20) #21
  %21 = getelementptr inbounds i8, ptr %.013, i64 16
  %.not = icmp eq ptr %21, %9
  br i1 %.not, label %._crit_edge, label %11

._crit_edge:                                      ; preds = %_ZN4llvm23SmallVectorTemplateBaseINS_9StringRefELb1EE9push_backES1_.exit, %4
  %22 = call noundef i64 @_ZNK4llvm15SmallVectorBaseIjE4sizeEv(ptr noundef nonnull align 8 dereferenceable(16) %5) #21
  %23 = load ptr, ptr %5, align 8
  %24 = icmp eq ptr %23, %6
  br i1 %24, label %_ZN4llvm11SmallVectorINS_9StringRefELj32EED2Ev.exit, label %25

25:                                               ; preds = %._crit_edge
  call void @free(ptr noundef %23) #21
  br label %_ZN4llvm11SmallVectorINS_9StringRefELj32EED2Ev.exit

_ZN4llvm11SmallVectorINS_9StringRefELj32EED2Ev.exit: ; preds = %._crit_edge, %25
  ret void
}